target datalayout = "e-m:e-p270:32:32-p271:32:32-p272:64:64-i64:64-i128:128-f80:128-n8:16:32:64-S128"
target triple = "x86_64-pc-linux-gnu"

%struct.FunctionCallInfoBaseData = type { ptr, ptr, ptr, i32, i8, i16, [0 x %struct.NullableDatum] }
%struct.NullableDatum = type { i64, i8 }
%struct.FormData_pg_enum = type { i32, i32, float, %struct.nameData }
%struct.nameData = type { [64 x i8] }
%struct.HeapTupleData = type { i32, %struct.ItemPointerData, i32, ptr }
%struct.ItemPointerData = type { %struct.BlockIdData, i16 }
%struct.BlockIdData = type { i16, i16 }
%struct.HeapTupleHeaderData = type { %union.anon, %struct.ItemPointerData, i16, i16, i8, [0 x i8] }
%union.anon = type { %struct.HeapTupleFields }
%struct.HeapTupleFields = type { i32, i32, %union.anon.0 }
%union.anon.0 = type { i32 }
%struct.StringInfoData = type { ptr, i32, i32, i32 }

@.str.1 = private unnamed_addr constant [7 x i8] c"enum.c\00", align 1
@.str.2 = private unnamed_addr constant [36 x i8] c"invalid internal value for enum: %u\00", align 1
@__func__.enum_send = private unnamed_addr constant [10 x i8] c"enum_send\00", align 1

; Function Attrs: inlinehint nounwind uwtable
define internal i64 @PointerGetDatum(ptr noundef %0) #2 {
  %2 = alloca ptr, align 8
  store ptr %0, ptr %2, align 8
  %3 = load ptr, ptr %2, align 8
  %4 = ptrtoint ptr %3 to i64
  ret i64 %4
}

; Function Attrs: inlinehint nounwind uwtable
define internal ptr @GETSTRUCT(ptr noundef %0) #2 {
  %2 = alloca ptr, align 8
  store ptr %0, ptr %2, align 8
  %3 = load ptr, ptr %2, align 8
  %4 = getelementptr inbounds nuw %struct.HeapTupleData, ptr %3, i32 0, i32 3
  %5 = load ptr, ptr %4, align 8
  %6 = load ptr, ptr %2, align 8
  %7 = getelementptr inbounds nuw %struct.HeapTupleData, ptr %6, i32 0, i32 3
  %8 = load ptr, ptr %7, align 8
  %9 = getelementptr inbounds nuw %struct.HeapTupleHeaderData, ptr %8, i32 0, i32 4
  %10 = load i8, ptr %9, align 2
  %11 = zext i8 %10 to i32
  %12 = sext i32 %11 to i64
  %13 = getelementptr inbounds i8, ptr %5, i64 %12
  ret ptr %13
}

; Function Attrs: inlinehint nounwind uwtable
define internal i64 @ObjectIdGetDatum(i32 noundef %0) #2 {
  %2 = alloca i32, align 4
  store i32 %0, ptr %2, align 4
  %3 = load i32, ptr %2, align 4
  %4 = zext i32 %3 to i64
  ret i64 %4
}

; Function Attrs: inlinehint nounwind uwtable
define internal i32 @DatumGetObjectId(i64 noundef %0) #2 {
  %2 = alloca i64, align 8
  store i64 %0, ptr %2, align 8
  %3 = load i64, ptr %2, align 8
  %4 = trunc i64 %3 to i32
  ret i32 %4
}

; Function Attrs: nounwind uwtable
define dso_local i64 @enum_send(ptr noundef %0) #0 {
  %2 = alloca ptr, align 8
  %3 = alloca i32, align 4
  %4 = alloca %struct.StringInfoData, align 8
  %5 = alloca ptr, align 8
  %6 = alloca ptr, align 8
  store ptr %0, ptr %2, align 8
  call void @llvm.lifetime.start.p0(i64 4, ptr %3) #6
  %7 = load ptr, ptr %2, align 8
  %8 = getelementptr inbounds nuw %struct.FunctionCallInfoBaseData, ptr %7, i32 0, i32 6
  %9 = getelementptr inbounds [0 x %struct.NullableDatum], ptr %8, i64 0, i64 0
  %10 = getelementptr inbounds nuw %struct.NullableDatum, ptr %9, i32 0, i32 0
  %11 = load i64, ptr %10, align 8
  %12 = call i32 @DatumGetObjectId(i64 noundef %11)
  store i32 %12, ptr %3, align 4
  call void @llvm.lifetime.start.p0(i64 24, ptr %4) #6
  call void @llvm.lifetime.start.p0(i64 8, ptr %5) #6
  call void @llvm.lifetime.start.p0(i64 8, ptr %6) #6
  %13 = load i32, ptr %3, align 4
  %14 = call i64 @ObjectIdGetDatum(i32 noundef %13)
  %15 = call ptr @SearchSysCache1(i32 noundef 23, i64 noundef %14)
  store ptr %15, ptr %5, align 8
  %16 = load ptr, ptr %5, align 8
  %17 = icmp ne ptr %16, null
  br i1 %17, label %31, label %18

18:                                               ; preds = %1
  br label %19

19:                                               ; preds = %18
  br i1 true, label %20, label %22

20:                                               ; preds = %19
  %21 = call zeroext i1 @errstart_cold(i32 noundef 21, ptr noundef null) #8
  br i1 %21, label %24, label %28

22:                                               ; preds = %19
  %23 = call zeroext i1 @errstart(i32 noundef 21, ptr noundef null)
  br i1 %23, label %24, label %28

24:                                               ; preds = %22, %20
  %25 = call i32 @errcode(i32 noundef 50462850)
  %26 = load i32, ptr %3, align 4
  %27 = call i32 (ptr, ...) @errmsg(ptr noundef @.str.2, i32 noundef %26)
  call void @errfinish(ptr noundef @.str.1, i32 noundef 233, ptr noundef @__func__.enum_send)
  br label %28

28:                                               ; preds = %24, %22, %20
  unreachable

29:                                               ; No predecessors!
  br label %30

30:                                               ; preds = %29
  br label %31

31:                                               ; preds = %30, %1
  %32 = load ptr, ptr %5, align 8
  %33 = call ptr @GETSTRUCT(ptr noundef %32)
  store ptr %33, ptr %6, align 8
  call void @pq_begintypsend(ptr noundef %4)
  %34 = load ptr, ptr %6, align 8
  %35 = getelementptr inbounds nuw %struct.FormData_pg_enum, ptr %34, i32 0, i32 3
  %36 = getelementptr inbounds nuw %struct.nameData, ptr %35, i32 0, i32 0
  %37 = getelementptr inbounds [64 x i8], ptr %36, i64 0, i64 0
  %38 = load ptr, ptr %6, align 8
  %39 = getelementptr inbounds nuw %struct.FormData_pg_enum, ptr %38, i32 0, i32 3
  %40 = getelementptr inbounds nuw %struct.nameData, ptr %39, i32 0, i32 0
  %41 = getelementptr inbounds [64 x i8], ptr %40, i64 0, i64 0
  %42 = call i64 @strlen(ptr noundef %41) #7
  %43 = trunc i64 %42 to i32
  call void @pq_sendtext(ptr noundef %4, ptr noundef %37, i32 noundef %43)
  %44 = load ptr, ptr %5, align 8
  call void @ReleaseSysCache(ptr noundef %44)
  %45 = call ptr @pq_endtypsend(ptr noundef %4)
  %46 = call i64 @PointerGetDatum(ptr noundef %45)
  call void @llvm.lifetime.end.p0(i64 8, ptr %6) #6
  call void @llvm.lifetime.end.p0(i64 8, ptr %5) #6
  call void @llvm.lifetime.end.p0(i64 24, ptr %4) #6
  call void @llvm.lifetime.end.p0(i64 4, ptr %3) #6
  ret i64 %46
}