; Function Attrs: nounwind uwtable
define dso_local i64 @enum_send(ptr noundef readonly captures(none) %0) local_unnamed_addr #0 {
  %2 = alloca %struct.StringInfoData, align 8
  %3 = getelementptr inbounds nuw i8, ptr %0, i64 32
  %4 = load i64, ptr %3, align 8
  call void @llvm.lifetime.start.p0(i64 24, ptr nonnull %2) #8
  %5 = and i64 %4, 4294967295
  %6 = tail call ptr @SearchSysCache1(i32 noundef 23, i64 noundef %5) #8
  %.not = icmp eq ptr %6, null
  br i1 %.not, label %7, label %12

7:                                                ; preds = %1
  %8 = trunc i64 %4 to i32
  %9 = tail call zeroext i1 @errstart_cold(i32 noundef 21, ptr noundef null) #9
  tail call void @llvm.assume(i1 %9)
  %10 = tail call i32 @errcode(i32 noundef 50462850) #8
  %11 = tail call i32 (ptr, ...) @errmsg(ptr noundef nonnull @.str.2, i32 noundef %8) #8
  tail call void @errfinish(ptr noundef nonnull @.str.1, i32 noundef 233, ptr noundef nonnull @__func__.enum_send) #8
  unreachable

12:                                               ; preds = %1
  %13 = getelementptr i8, ptr %6, i64 16
  %.val = load ptr, ptr %13, align 8
  %14 = getelementptr inbounds nuw i8, ptr %.val, i64 22
  %15 = load i8, ptr %14, align 2
  %16 = zext i8 %15 to i64
  %17 = getelementptr inbounds nuw i8, ptr %.val, i64 %16
  call void @pq_begintypsend(ptr noundef nonnull %2) #8
  %18 = getelementptr inbounds nuw i8, ptr %17, i64 12
  %19 = call i64 @strlen(ptr noundef nonnull dereferenceable(1) %18) #7
  %20 = trunc i64 %19 to i32
  call void @pq_sendtext(ptr noundef nonnull %2, ptr noundef nonnull %18, i32 noundef %20) #8
  call void @ReleaseSysCache(ptr noundef nonnull %6) #8
  %21 = call ptr @pq_endtypsend(ptr noundef nonnull %2) #8
  %22 = ptrtoint ptr %21 to i64
  call void @llvm.lifetime.end.p0(i64 24, ptr nonnull %2) #8
  ret i64 %22
}